target datalayout = "e-m:e-p270:32:32-p271:32:32-p272:64:64-i64:64-i128:128-f80:128-n8:16:32:64-S128"
target triple = "x86_64-pc-linux-gnu"

; Function Attrs: mustprogress nounwind ssp uwtable
define linkonce_odr noundef zeroext i1 @_ZSt8isfinitef(float noundef %0) #5 comdat {
  %2 = alloca float, align 4
  store float %0, ptr %2, align 4, !tbaa !167
  %3 = load float, ptr %2, align 4, !tbaa !167
  %4 = call i1 @llvm.is.fpclass.f32(float %3, i32 504)
  ret i1 %4
}

; Function Attrs: mustprogress nounwind ssp uwtable
define internal void @_ZN6open3d4core6kernelL24CPUIsFiniteElementKernelIdEEvPKvPv(ptr noundef %0, ptr noundef %1) #5 {
  %3 = alloca ptr, align 8
  %4 = alloca ptr, align 8
  store ptr %0, ptr %3, align 8, !tbaa !49
  store ptr %1, ptr %4, align 8, !tbaa !49
  %5 = load ptr, ptr %3, align 8, !tbaa !49
  %6 = load double, ptr %5, align 8, !tbaa !169
  %7 = fptrunc double %6 to float
  %8 = call noundef zeroext i1 @_ZSt8isfinitef(float noundef %7)
  %9 = load ptr, ptr %4, align 8, !tbaa !49
  %10 = zext i1 %8 to i8
  store i8 %10, ptr %9, align 1, !tbaa !76
  ret void
}